; Function Attrs: mustprogress nounwind uwtable
define void @_ZNK19OpenColorIO_v2_5dev6Config22setProcessorCacheFlagsENS_19ProcessorCacheFlagsE(ptr noundef nonnull readonly align 8 captures(none) dereferenceable(8) %0, i32 noundef %1) local_unnamed_addr #6 align 2 personality ptr @__gxx_personality_v0 {
  %3 = load ptr, ptr %0, align 8, !tbaa !34
  %4 = getelementptr inbounds nuw i8, ptr %3, i64 1008
  store i32 %1, ptr %4, align 8, !tbaa !202
  %5 = getelementptr inbounds nuw i8, ptr %3, i64 1032
  %6 = tail call noundef i32 @pthread_mutex_lock(ptr noundef nonnull align 8 dereferenceable(40) %5) #34
  %.not.i.i.i.i = icmp eq i32 %6, 0
  br i1 %.not.i.i.i.i, label %_ZNK19OpenColorIO_v2_5dev6Config4Impl22setProcessorCacheFlagsENS_19ProcessorCacheFlagsE.exit, label %7

7:                                                ; preds = %2
  invoke void @_ZSt20__throw_system_errori(i32 noundef %6) #35
          to label %.noexc.i.i unwind label %8

.noexc.i.i:                                       ; preds = %7
  unreachable

8:                                                ; preds = %7
  %9 = landingpad { ptr, i32 }
          catch ptr null
  %10 = extractvalue { ptr, i32 } %9, 0
  tail call void @__clang_call_terminate(ptr %10) #38
  unreachable

_ZNK19OpenColorIO_v2_5dev6Config4Impl22setProcessorCacheFlagsENS_19ProcessorCacheFlagsE.exit: ; preds = %2
  %11 = trunc i32 %1 to i8
  %12 = and i8 %11, 1
  %13 = getelementptr inbounds nuw i8, ptr %3, i64 1025
  store i8 %12, ptr %13, align 1, !tbaa !204
  %14 = tail call noundef i32 @pthread_mutex_unlock(ptr noundef nonnull align 8 dereferenceable(40) %5) #34
  ret void
}